(dp1
S'forsale'
p2
F0.051802001239706012
sS'electronics'
p3
F0.052333303816523513
sS'motorcycles'
p4
F0.052953156822810592
sS'autos'
p5
F0.05259895510493226
sS'space'
p6
F0.052510404675462675
sS'mideastpolitics'
p7
F0.04994244222084477
sS'pc'
p8
F0.052244753387053929
sS'cryptology'
p9
F0.052687505534401845
sS'christianity'
p10
F0.052953156822810592
sS'atheism'
p11
F0.042504206145399806
sS'religion'
p12
F0.033383511910032762
sS'mac'
p13
F0.051182148233418934
sS'baseball'
p14
F0.052864606393341007
sS'hockey'
p15
F0.053130257681749754
sS'graphics'
p16
F0.051713450810236428
sS'medicine'
p17
F0.05259895510493226
sS'politics'
p18
F0.041175949703356064
sS'mswindows'
p19
F0.050650845656601433
sS'xwindows'
p20
F0.052510404675462675
sS'guns'
p21
F0.048259984060922696
s.