(dp1
S'christianity'
p2
F598
sS'religion'
p3
F377
sS'motorcycles'
p4
F598
sS'autos'
p5
F594
sS'guns'
p6
F545
sS'space'
p7
F593
sS'mideastpolitics'
p8
F564
sS'cryptology'
p9
F595
sS'xwindows'
p10
F593
sS'atheism'
p11
F480
sS'pc'
p12
F590
sS'mac'
p13
F578
sS'baseball'
p14
F597
sS'hockey'
p15
F600
sS'graphics'
p16
F584
sS'medicine'
p17
F594
sS'politics'
p18
F465
sS'mswindows'
p19
F572
sS'forsale'
p20
F585
sS'electronics'
p21
F591
s.